; Function Attrs: mustprogress uwtable
define noundef ptr @Java_sun_jvm_hotspot_debugger_linux_LinuxDebuggerLocal_demangle(ptr noundef %0, ptr nocapture noundef readnone %1, ptr noundef %2) local_unnamed_addr #0 {
  %4 = alloca i32, align 4
  %5 = load ptr, ptr %0, align 8
  %6 = getelementptr inbounds i8, ptr %5, i64 1352
  %7 = load ptr, ptr %6, align 8
  %8 = tail call noundef ptr %7(ptr noundef nonnull %0, ptr noundef %2, ptr noundef null)
  %9 = icmp eq ptr %8, null
  br i1 %9, label %10, label %24

10:                                               ; preds = %3
  %11 = load ptr, ptr %0, align 8
  %12 = getelementptr inbounds i8, ptr %11, i64 48
  %13 = load ptr, ptr %12, align 8
  %14 = tail call noundef ptr %13(ptr noundef nonnull %0, ptr noundef nonnull @.str)
  %15 = load ptr, ptr %0, align 8
  %16 = getelementptr inbounds i8, ptr %15, i64 120
  %17 = load ptr, ptr %16, align 8
  %18 = tail call noundef ptr %17(ptr noundef nonnull %0)
  %.not.i = icmp eq ptr %18, null
  br i1 %.not.i, label %19, label %throw_new_debugger_exception.exit

19:                                               ; preds = %10
  %20 = load ptr, ptr %0, align 8
  %21 = getelementptr inbounds i8, ptr %20, i64 112
  %22 = load ptr, ptr %21, align 8
  %23 = tail call noundef i32 %22(ptr noundef nonnull %0, ptr noundef %14, ptr noundef nonnull @.str.26)
  br label %throw_new_debugger_exception.exit

24:                                               ; preds = %3
  %25 = call ptr @__cxa_demangle(ptr noundef nonnull %8, ptr noundef null, ptr noundef null, ptr noundef nonnull %4)
  %26 = load ptr, ptr %0, align 8
  %27 = getelementptr inbounds i8, ptr %26, i64 1360
  %28 = load ptr, ptr %27, align 8
  call void %28(ptr noundef nonnull %0, ptr noundef %2, ptr noundef nonnull %8)
  %29 = icmp ne ptr %25, null
  %30 = load i32, ptr %4, align 4
  %31 = icmp eq i32 %30, 0
  %or.cond = select i1 %29, i1 %31, i1 false
  br i1 %or.cond, label %32, label %37

32:                                               ; preds = %24
  %33 = load ptr, ptr %0, align 8
  %34 = getelementptr inbounds i8, ptr %33, i64 1336
  %35 = load ptr, ptr %34, align 8
  %36 = call noundef ptr %35(ptr noundef nonnull %0, ptr noundef nonnull %25)
  call void @free(ptr noundef nonnull %25) #13
  br label %throw_new_debugger_exception.exit

37:                                               ; preds = %24
  %38 = icmp eq i32 %30, -2
  br i1 %38, label %throw_new_debugger_exception.exit, label %39

39:                                               ; preds = %37
  %40 = load ptr, ptr %0, align 8
  %41 = getelementptr inbounds i8, ptr %40, i64 48
  %42 = load ptr, ptr %41, align 8
  %43 = call noundef ptr %42(ptr noundef nonnull %0, ptr noundef nonnull @.str)
  %44 = load ptr, ptr %0, align 8
  %45 = getelementptr inbounds i8, ptr %44, i64 120
  %46 = load ptr, ptr %45, align 8
  %47 = call noundef ptr %46(ptr noundef nonnull %0)
  %.not.i20 = icmp eq ptr %47, null
  br i1 %.not.i20, label %48, label %throw_new_debugger_exception.exit

48:                                               ; preds = %39
  %49 = load ptr, ptr %0, align 8
  %50 = getelementptr inbounds i8, ptr %49, i64 112
  %51 = load ptr, ptr %50, align 8
  %52 = call noundef i32 %51(ptr noundef nonnull %0, ptr noundef %43, ptr noundef nonnull @.str.27)
  br label %throw_new_debugger_exception.exit

throw_new_debugger_exception.exit:                ; preds = %48, %39, %19, %10, %32, %37
  %.0 = phi ptr [ %36, %32 ], [ %2, %37 ], [ null, %10 ], [ null, %19 ], [ null, %39 ], [ null, %48 ]
  ret ptr %.0
}